Certificate:
    Data:
        Version: 3 (0x2)
        Serial Number: 2 (0x2)
    Signature Algorithm: sha256WithRSAEncryption
        Issuer: C=US, ST=CA, L=SanFrancisco, O=Fort-Funston, OU=MyOrganizationalUnit, CN=Fort-Funston CA/name=EasyRSA/emailAddress=me@myhost.mydomain
        Validity
            Not Before: May 18 05:32:32 2017 GMT
            Not After : May 16 05:32:32 2027 GMT
        Subject: C=US, ST=CA, L=SanFrancisco, O=Fort-Funston, OU=MyOrganizationalUnit, CN=john/name=EasyRSA/emailAddress=me@myhost.mydomain
        Subject Public Key Info:
            Public Key Algorithm: rsaEncryption
                Public-Key: (2048 bit)
                Modulus:
                    00:ab:4c:e0:18:9d:94:3a:b8:6f:5c:fe:87:ba:a3:
                    52:a7:1a:14:26:38:27:98:bc:69:03:f2:7e:70:42:
                    41:49:06:ba:f2:c9:4b:f3:2a:e6:ed:ad:82:cd:f0:
                    4b:84:cd:50:12:35:b4:ac:d0:39:ef:c4:8c:8f:cd:
                    1c:7d:b2:9d:1b:af:93:cf:d2:a0:b0:1b:ff:4c:b6:
                    49:ed:ea:51:40:14:9a:d4:d5:68:8c:24:9a:a6:a9:
                    4d:dc:2d:22:94:c8:27:e1:12:76:10:fe:3b:ab:22:
                    7c:d2:00:d9:52:94:1e:aa:48:75:12:dc:80:1a:98:
                    d5:0f:51:2d:1f:da:10:cc:1b:23:42:5b:95:e9:aa:
                    27:0c:33:6c:80:a6:8e:71:81:5f:ef:ab:ec:3e:d2:
                    31:8a:4f:7b:57:3b:dc:a7:00:83:50:80:95:db:81:
                    ff:e8:c5:44:86:33:2f:52:80:cc:57:91:a4:b8:4d:
                    1f:07:2b:b6:f1:63:dd:9c:70:f9:5b:19:f7:f0:3f:
                    ba:24:8f:13:52:c5:0e:b2:63:14:c3:9f:cb:5c:3c:
                    53:8e:0d:2d:b7:8f:67:33:9b:0d:31:74:76:c2:9c:
                    f3:5f:02:d0:b7:63:f8:65:24:c3:2f:50:7d:c8:b1:
                    ab:23:67:f6:19:1b:05:ec:aa:d2:75:ce:e2:31:f6:
                    bb:45
                Exponent: 65537 (0x10001)
        X509v3 extensions:
            X509v3 Basic Constraints: 
                CA:FALSE
            Netscape Comment: 
                Easy-RSA Generated Certificate
            X509v3 Subject Key Identifier: 
                E4:44:25:F0:92:CC:58:3D:3C:69:79:61:6E:80:CB:17:19:FA:2E:5C
            X509v3 Authority Key Identifier: 
                keyid:52:84:69:2C:69:1A:BB:F0:FF:62:A9:2E:D0:37:CE:5F:08:C4:1F:7B
                DirName:/C=US/ST=CA/L=SanFrancisco/O=Fort-Funston/OU=MyOrganizationalUnit/CN=Fort-Funston CA/name=EasyRSA/emailAddress=me@myhost.mydomain
                serial:97:9A:F6:F9:8C:19:B9:F7

            X509v3 Extended Key Usage: 
                TLS Web Client Authentication
            X509v3 Key Usage: 
                Digital Signature
    Signature Algorithm: sha256WithRSAEncryption
         86:29:54:05:80:59:43:13:d7:8a:93:9e:6a:42:da:e0:ff:fb:
         c9:b2:6c:27:ae:df:84:28:5b:f9:fc:f5:2f:71:f2:1e:ad:b7:
         94:b7:8f:2e:6a:41:d2:2e:ff:bc:33:f6:d8:98:fb:9e:9a:5f:
         60:b1:31:32:ed:11:c0:44:4a:62:bd:87:76:69:61:b5:ee:9c:
         2f:26:43:56:73:de:3b:9c:eb:3f:fc:c7:07:86:6f:0e:6c:da:
         6e:a3:5b:fd:3b:93:09:b4:5e:2e:52:e2:57:5b:55:6d:95:1f:
         8d:7b:c2:09:12:01:ca:70:0f:f8:8c:8e:6f:4b:71:05:85:23:
         92:5a:c9:84:2e:e7:ec:e8:2a:57:9b:45:a9:61:18:3f:7d:c0:
         eb:f9:67:7f:70:27:1a:77:4f:f5:56:eb:e7:93:82:3a:10:31:
         8b:04:30:34:be:42:aa:ba:95:64:f2:64:3f:49:13:6f:a5:00:
         c2:ac:07:0c:1c:42:54:de:34:c8:d2:ba:07:ab:f9:f6:15:41:
         30:d2:04:53:ef:35:21:2f:e1:19:85:40:c8:bf:4d:bd:c4:bf:
         94:0b:58:5c:57:ab:4b:af:42:da:b4:59:46:15:34:46:e8:e7:
         47:5c:23:7b:02:0c:d1:95:bc:69:34:7e:5d:ca:44:ae:68:2d:
         15:a3:6e:a4
-----BEGIN CERTIFICATE-----
MIIFTTCCBDWgAwIBAgIBAjANBgkqhkiG9w0BAQsFADCBtjELMAkGA1UEBhMCVVMx
CzAJBgNVBAgTAkNBMRUwEwYDVQQHEwxTYW5GcmFuY2lzY28xFTATBgNVBAoTDEZv
cnQtRnVuc3RvbjEdMBsGA1UECxMUTXlPcmdhbml6YXRpb25hbFVuaXQxGDAWBgNV
BAMTD0ZvcnQtRnVuc3RvbiBDQTEQMA4GA1UEKRMHRWFzeVJTQTEhMB8GCSqGSIb3
DQEJARYSbWVAbXlob3N0Lm15ZG9tYWluMB4XDTE3MDUxODA1MzIzMloXDTI3MDUx
NjA1MzIzMlowgasxCzAJBgNVBAYTAlVTMQswCQYDVQQIEwJDQTEVMBMGA1UEBxMM
U2FuRnJhbmNpc2NvMRUwEwYDVQQKEwxGb3J0LUZ1bnN0b24xHTAbBgNVBAsTFE15
T3JnYW5pemF0aW9uYWxVbml0MQ0wCwYDVQQDEwRqb2huMRAwDgYDVQQpEwdFYXN5
UlNBMSEwHwYJKoZIhvcNAQkBFhJtZUBteWhvc3QubXlkb21haW4wggEiMA0GCSqG
SIb3DQEBAQUAA4IBDwAwggEKAoIBAQCrTOAYnZQ6uG9c/oe6o1KnGhQmOCeYvGkD
8n5wQkFJBrryyUvzKubtrYLN8EuEzVASNbSs0DnvxIyPzRx9sp0br5PP0qCwG/9M
tknt6lFAFJrU1WiMJJqmqU3cLSKUyCfhEnYQ/jurInzSANlSlB6qSHUS3IAamNUP
US0f2hDMGyNCW5XpqicMM2yApo5xgV/vq+w+0jGKT3tXO9ynAINQgJXbgf/oxUSG
My9SgMxXkaS4TR8HK7bxY92ccPlbGffwP7okjxNSxQ6yYxTDn8tcPFOODS23j2cz
mw0xdHbCnPNfAtC3Y/hlJMMvUH3IsasjZ/YZGwXsqtJ1zuIx9rtFAgMBAAGjggFt
MIIBaTAJBgNVHRMEAjAAMC0GCWCGSAGG+EIBDQQgFh5FYXN5LVJTQSBHZW5lcmF0
ZWQgQ2VydGlmaWNhdGUwHQYDVR0OBBYEFOREJfCSzFg9PGl5YW6AyxcZ+i5cMIHr
BgNVHSMEgeMwgeCAFFKEaSxpGrvw/2KpLtA3zl8IxB97oYG8pIG5MIG2MQswCQYD
VQQGEwJVUzELMAkGA1UECBMCQ0ExFTATBgNVBAcTDFNhbkZyYW5jaXNjbzEVMBMG
A1UEChMMRm9ydC1GdW5zdG9uMR0wGwYDVQQLExRNeU9yZ2FuaXphdGlvbmFsVW5p
dDEYMBYGA1UEAxMPRm9ydC1GdW5zdG9uIENBMRAwDgYDVQQpEwdFYXN5UlNBMSEw
HwYJKoZIhvcNAQkBFhJtZUBteWhvc3QubXlkb21haW6CCQCXmvb5jBm59zATBgNV
HSUEDDAKBggrBgEFBQcDAjALBgNVHQ8EBAMCB4AwDQYJKoZIhvcNAQELBQADggEB
AIYpVAWAWUMT14qTnmpC2uD/+8mybCeu34QoW/n89S9x8h6tt5S3jy5qQdIu/7wz
9tiY+56aX2CxMTLtEcBESmK9h3ZpYbXunC8mQ1Zz3juc6z/8xweGbw5s2m6jW/07
kwm0Xi5S4ldbVW2VH417wgkSAcpwD/iMjm9LcQWFI5JayYQu5+zoKlebRalhGD99
wOv5Z39wJxp3T/VW6+eTgjoQMYsEMDS+Qqq6lWTyZD9JE2+lAMKsBwwcQlTeNMjS
uger+fYVQTDSBFPvNSEv4RmFQMi/Tb3Ev5QLWFxXq0uvQtq0WUYVNEbo50dcI3sC
DNGVvGk0fl3KRK5oLRWjbqQ=
-----END CERTIFICATE-----
