Certificate:
    Data:
        Version: 3 (0x2)
        Serial Number: 1 (0x1)
    Signature Algorithm: sha256WithRSAEncryption
        Issuer: C=US, ST=CA, L=SanFrancisco, O=Fort-Funston, OU=MyOrganizationalUnit, CN=Fort-Funston CA/name=EasyRSA/emailAddress=me@myhost.mydomain
        Validity
            Not Before: May 18 05:28:26 2017 GMT
            Not After : May 16 05:28:26 2027 GMT
        Subject: C=US, ST=CA, L=SanFrancisco, O=Fort-Funston, OU=MyOrganizationalUnit, CN=server/name=EasyRSA/emailAddress=me@myhost.mydomain
        Subject Public Key Info:
            Public Key Algorithm: rsaEncryption
                Public-Key: (2048 bit)
                Modulus:
                    00:a5:44:8e:4b:1e:63:b5:7f:11:7d:c7:dc:21:e8:
                    e0:26:67:96:23:6e:2d:e5:a6:6d:04:47:5b:91:6e:
                    cf:f8:25:03:3c:ee:6c:e4:a4:00:2c:21:d0:3b:83:
                    aa:18:a1:49:af:76:e5:0b:ed:ec:73:d4:64:1a:ee:
                    83:03:ef:36:0c:5f:8c:d5:f7:81:db:9e:0e:fa:61:
                    e9:76:8f:34:8e:74:ac:4d:45:5b:cb:c1:f7:ac:82:
                    d2:ff:55:b1:bb:38:1b:a9:17:41:d8:a9:a1:76:66:
                    35:90:e7:8e:99:dd:1d:8e:b5:4b:a4:a7:f8:2a:92:
                    1f:36:e9:fa:a7:2d:21:19:b1:79:a6:64:a3:3f:aa:
                    2e:ba:0f:c2:e9:d8:91:92:c3:f9:41:9a:06:f8:a0:
                    a8:bb:ce:2f:34:c1:db:8e:90:9f:86:13:35:d9:a4:
                    bd:54:2b:d9:7c:11:4b:bc:28:87:2c:2b:66:40:40:
                    df:2c:c9:7f:e0:eb:a6:6b:5b:be:6b:47:9c:67:13:
                    8f:7d:a0:d3:2a:94:64:15:c9:78:94:7b:12:f6:c5:
                    38:72:35:32:01:a7:2d:e5:26:27:44:6f:a0:ab:70:
                    45:a4:0a:a3:50:a5:04:65:19:96:ec:40:b5:a5:0f:
                    67:9c:5d:ce:07:5b:68:c9:52:70:0d:a7:74:b8:d8:
                    22:c7
                Exponent: 65537 (0x10001)
        X509v3 extensions:
            X509v3 Basic Constraints: 
                CA:FALSE
            Netscape Cert Type: 
                SSL Server
            Netscape Comment: 
                Easy-RSA Generated Server Certificate
            X509v3 Subject Key Identifier: 
                6D:77:BE:8E:0D:B6:6A:FF:3F:6B:87:1E:34:29:B4:67:1D:8C:AD:B7
            X509v3 Authority Key Identifier: 
                keyid:52:84:69:2C:69:1A:BB:F0:FF:62:A9:2E:D0:37:CE:5F:08:C4:1F:7B
                DirName:/C=US/ST=CA/L=SanFrancisco/O=Fort-Funston/OU=MyOrganizationalUnit/CN=Fort-Funston CA/name=EasyRSA/emailAddress=me@myhost.mydomain
                serial:97:9A:F6:F9:8C:19:B9:F7

            X509v3 Extended Key Usage: 
                TLS Web Server Authentication
            X509v3 Key Usage: 
                Digital Signature, Key Encipherment
    Signature Algorithm: sha256WithRSAEncryption
         c0:24:7b:19:41:fd:d3:f9:f6:59:c0:20:c5:c2:6e:2b:a8:75:
         7a:88:8a:59:c4:41:1f:59:be:7c:78:d8:28:47:17:03:1a:96:
         7a:91:ae:04:16:41:5d:fd:7d:9c:3f:26:34:e7:ed:ee:0b:96:
         db:37:50:1e:e9:da:ab:0b:75:8a:49:20:3e:48:26:db:a9:c2:
         70:ad:9d:ec:d4:d0:e9:d8:b2:24:6f:c4:19:c1:a8:db:10:61:
         f1:43:a2:6b:8d:0a:9b:c0:3b:22:c3:aa:df:fd:e9:f6:0f:78:
         5a:bf:8a:ca:5a:33:be:cd:4c:05:c7:dd:ff:75:7d:80:10:c4:
         5c:c2:f4:c3:10:64:74:da:78:62:dc:03:32:3f:1b:69:63:c4:
         bf:be:b0:5a:79:51:4a:b5:73:f6:dc:68:2b:89:8f:02:61:f1:
         52:33:4a:fb:c0:43:b2:0f:48:36:62:13:3b:17:9e:af:71:7a:
         6a:dc:7c:e0:8c:78:05:1b:57:c0:02:78:78:4e:1c:2e:77:1f:
         3d:0f:be:ac:da:29:4c:c4:68:a2:79:3d:42:77:4e:75:4b:b9:
         b9:19:d4:7e:24:32:98:aa:2b:07:52:2d:cc:c9:4d:91:e6:20:
         30:31:3d:57:4f:c4:cc:2a:26:50:21:da:d9:ba:6c:8e:9d:2e:
         7e:56:df:65
-----BEGIN CERTIFICATE-----
MIIFaTCCBFGgAwIBAgIBATANBgkqhkiG9w0BAQsFADCBtjELMAkGA1UEBhMCVVMx
CzAJBgNVBAgTAkNBMRUwEwYDVQQHEwxTYW5GcmFuY2lzY28xFTATBgNVBAoTDEZv
cnQtRnVuc3RvbjEdMBsGA1UECxMUTXlPcmdhbml6YXRpb25hbFVuaXQxGDAWBgNV
BAMTD0ZvcnQtRnVuc3RvbiBDQTEQMA4GA1UEKRMHRWFzeVJTQTEhMB8GCSqGSIb3
DQEJARYSbWVAbXlob3N0Lm15ZG9tYWluMB4XDTE3MDUxODA1MjgyNloXDTI3MDUx
NjA1MjgyNlowga0xCzAJBgNVBAYTAlVTMQswCQYDVQQIEwJDQTEVMBMGA1UEBxMM
U2FuRnJhbmNpc2NvMRUwEwYDVQQKEwxGb3J0LUZ1bnN0b24xHTAbBgNVBAsTFE15
T3JnYW5pemF0aW9uYWxVbml0MQ8wDQYDVQQDEwZzZXJ2ZXIxEDAOBgNVBCkTB0Vh
c3lSU0ExITAfBgkqhkiG9w0BCQEWEm1lQG15aG9zdC5teWRvbWFpbjCCASIwDQYJ
KoZIhvcNAQEBBQADggEPADCCAQoCggEBAKVEjkseY7V/EX3H3CHo4CZnliNuLeWm
bQRHW5Fuz/glAzzubOSkACwh0DuDqhihSa925Qvt7HPUZBrugwPvNgxfjNX3gdue
Dvph6XaPNI50rE1FW8vB96yC0v9Vsbs4G6kXQdipoXZmNZDnjpndHY61S6Sn+CqS
Hzbp+qctIRmxeaZkoz+qLroPwunYkZLD+UGaBvigqLvOLzTB246Qn4YTNdmkvVQr
2XwRS7wohywrZkBA3yzJf+DrpmtbvmtHnGcTj32g0yqUZBXJeJR7EvbFOHI1MgGn
LeUmJ0RvoKtwRaQKo1ClBGUZluxAtaUPZ5xdzgdbaMlScA2ndLjYIscCAwEAAaOC
AYcwggGDMAkGA1UdEwQCMAAwEQYJYIZIAYb4QgEBBAQDAgZAMDQGCWCGSAGG+EIB
DQQnFiVFYXN5LVJTQSBHZW5lcmF0ZWQgU2VydmVyIENlcnRpZmljYXRlMB0GA1Ud
DgQWBBRtd76ODbZq/z9rhx40KbRnHYyttzCB6wYDVR0jBIHjMIHggBRShGksaRq7
8P9iqS7QN85fCMQfe6GBvKSBuTCBtjELMAkGA1UEBhMCVVMxCzAJBgNVBAgTAkNB
MRUwEwYDVQQHEwxTYW5GcmFuY2lzY28xFTATBgNVBAoTDEZvcnQtRnVuc3RvbjEd
MBsGA1UECxMUTXlPcmdhbml6YXRpb25hbFVuaXQxGDAWBgNVBAMTD0ZvcnQtRnVu
c3RvbiBDQTEQMA4GA1UEKRMHRWFzeVJTQTEhMB8GCSqGSIb3DQEJARYSbWVAbXlo
b3N0Lm15ZG9tYWluggkAl5r2+YwZufcwEwYDVR0lBAwwCgYIKwYBBQUHAwEwCwYD
VR0PBAQDAgWgMA0GCSqGSIb3DQEBCwUAA4IBAQDAJHsZQf3T+fZZwCDFwm4rqHV6
iIpZxEEfWb58eNgoRxcDGpZ6ka4EFkFd/X2cPyY05+3uC5bbN1Ae6dqrC3WKSSA+
SCbbqcJwrZ3s1NDp2LIkb8QZwajbEGHxQ6JrjQqbwDsiw6rf/en2D3hav4rKWjO+
zUwFx93/dX2AEMRcwvTDEGR02nhi3AMyPxtpY8S/vrBaeVFKtXP23GgriY8CYfFS
M0r7wEOyD0g2YhM7F56vcXpq3HzgjHgFG1fAAnh4Thwudx89D76s2ilMxGiieT1C
d051S7m5GdR+JDKYqisHUi3MyU2R5iAwMT1XT8TMKiZQIdrZumyOnS5+Vt9l
-----END CERTIFICATE-----
